target datalayout = "e-m:e-p270:32:32-p271:32:32-p272:64:64-i64:64-i128:128-f80:128-n8:16:32:64-S128"
target triple = "x86_64-pc-linux-gnu"

%struct.translation_ctx_st = type { ptr, i32, i32, ptr, i32, i32, ptr, i64, ptr, ptr, [50 x i8], ptr, ptr, i64 }
%struct.ossl_param_st = type { ptr, i32, ptr, i64, i64 }

@.str = private unnamed_addr constant [46 x i8] c"../openssl/crypto/evp/ctrl_params_translate.c\00", align 1
@.str.102 = private unnamed_addr constant [3 x i8] c"qx\00", align 1
@.str.103 = private unnamed_addr constant [3 x i8] c"qy\00", align 1
@__func__.get_payload_public_key_ec = private unnamed_addr constant [26 x i8] c"get_payload_public_key_ec\00", align 1

; Function Attrs: nounwind uwtable
define internal i32 @get_payload_public_key_ec(i32 noundef %0, ptr noundef %1, ptr noundef %2) #0 {
  %4 = alloca i32, align 4
  %5 = alloca i32, align 4
  %6 = alloca ptr, align 8
  %7 = alloca ptr, align 8
  %8 = alloca ptr, align 8
  %9 = alloca ptr, align 8
  %10 = alloca ptr, align 8
  %11 = alloca ptr, align 8
  %12 = alloca ptr, align 8
  %13 = alloca ptr, align 8
  %14 = alloca ptr, align 8
  %15 = alloca i32, align 4
  %16 = alloca i32, align 4
  store i32 %0, ptr %5, align 4, !tbaa !8
  store ptr %1, ptr %6, align 8, !tbaa !11
  store ptr %2, ptr %7, align 8, !tbaa !43
  call void @llvm.lifetime.start.p0(i64 8, ptr %8) #9
  %17 = load ptr, ptr %7, align 8, !tbaa !43
  %18 = getelementptr inbounds nuw %struct.translation_ctx_st, ptr %17, i32 0, i32 6
  %19 = load ptr, ptr %18, align 8, !tbaa !40
  store ptr %19, ptr %8, align 8, !tbaa !68
  call void @llvm.lifetime.start.p0(i64 8, ptr %9) #9
  %20 = load ptr, ptr %8, align 8, !tbaa !68
  %21 = call ptr @EVP_PKEY_get0_EC_KEY(ptr noundef %20)
  store ptr %21, ptr %9, align 8, !tbaa !97
  call void @llvm.lifetime.start.p0(i64 8, ptr %10) #9
  call void @llvm.lifetime.start.p0(i64 8, ptr %11) #9
  call void @llvm.lifetime.start.p0(i64 8, ptr %12) #9
  call void @llvm.lifetime.start.p0(i64 8, ptr %13) #9
  store ptr null, ptr %13, align 8, !tbaa !103
  call void @llvm.lifetime.start.p0(i64 8, ptr %14) #9
  store ptr null, ptr %14, align 8, !tbaa !103
  call void @llvm.lifetime.start.p0(i64 4, ptr %15) #9
  store i32 0, ptr %15, align 4, !tbaa !8
  %22 = load ptr, ptr %7, align 8, !tbaa !43
  %23 = getelementptr inbounds nuw %struct.translation_ctx_st, ptr %22, i32 0, i32 6
  store ptr null, ptr %23, align 8, !tbaa !40
  %24 = load ptr, ptr %9, align 8, !tbaa !97
  %25 = icmp eq ptr %24, null
  br i1 %25, label %26, label %27

26:                                               ; preds = %3
  call void @ERR_new()
  call void @ERR_set_debug(ptr noundef @.str, i32 noundef 1682, ptr noundef @__func__.get_payload_public_key_ec)
  call void (i32, i32, ptr, ...) @ERR_set_error(i32 noundef 6, i32 noundef 224, ptr noundef null)
  store i32 0, ptr %4, align 4
  store i32 1, ptr %16, align 4
  br label %97

27:                                               ; preds = %3
  %28 = load ptr, ptr %9, align 8, !tbaa !97
  %29 = call ptr @ossl_ec_key_get_libctx(ptr noundef %28)
  %30 = call ptr @BN_CTX_new_ex(ptr noundef %29)
  store ptr %30, ptr %10, align 8, !tbaa !99
  %31 = load ptr, ptr %10, align 8, !tbaa !99
  %32 = icmp eq ptr %31, null
  br i1 %32, label %33, label %34

33:                                               ; preds = %27
  store i32 0, ptr %4, align 4
  store i32 1, ptr %16, align 4
  br label %97

34:                                               ; preds = %27
  %35 = load ptr, ptr %9, align 8, !tbaa !97
  %36 = call ptr @EC_KEY_get0_public_key(ptr noundef %35)
  store ptr %36, ptr %11, align 8, !tbaa !101
  %37 = load ptr, ptr %9, align 8, !tbaa !97
  %38 = call ptr @EC_KEY_get0_group(ptr noundef %37)
  store ptr %38, ptr %12, align 8, !tbaa !95
  %39 = load ptr, ptr %7, align 8, !tbaa !43
  %40 = getelementptr inbounds nuw %struct.translation_ctx_st, ptr %39, i32 0, i32 8
  %41 = load ptr, ptr %40, align 8, !tbaa !42
  %42 = getelementptr inbounds nuw %struct.ossl_param_st, ptr %41, i32 0, i32 1
  %43 = load i32, ptr %42, align 8, !tbaa !62
  %44 = icmp ne i32 %43, 2
  br i1 %44, label %45, label %46

45:                                               ; preds = %34
  br label %94

46:                                               ; preds = %34
  %47 = load ptr, ptr %10, align 8, !tbaa !99
  %48 = call ptr @BN_CTX_get(ptr noundef %47)
  store ptr %48, ptr %13, align 8, !tbaa !103
  %49 = load ptr, ptr %10, align 8, !tbaa !99
  %50 = call ptr @BN_CTX_get(ptr noundef %49)
  store ptr %50, ptr %14, align 8, !tbaa !103
  %51 = load ptr, ptr %14, align 8, !tbaa !103
  %52 = icmp eq ptr %51, null
  br i1 %52, label %53, label %54

53:                                               ; preds = %46
  br label %94

54:                                               ; preds = %46
  %55 = load ptr, ptr %12, align 8, !tbaa !95
  %56 = load ptr, ptr %11, align 8, !tbaa !101
  %57 = load ptr, ptr %13, align 8, !tbaa !103
  %58 = load ptr, ptr %14, align 8, !tbaa !103
  %59 = load ptr, ptr %10, align 8, !tbaa !99
  %60 = call i32 @EC_POINT_get_affine_coordinates(ptr noundef %55, ptr noundef %56, ptr noundef %57, ptr noundef %58, ptr noundef %59)
  %61 = icmp ne i32 %60, 0
  br i1 %61, label %63, label %62

62:                                               ; preds = %54
  br label %94

63:                                               ; preds = %54
  %64 = load ptr, ptr %7, align 8, !tbaa !43
  %65 = getelementptr inbounds nuw %struct.translation_ctx_st, ptr %64, i32 0, i32 8
  %66 = load ptr, ptr %65, align 8, !tbaa !42
  %67 = getelementptr inbounds nuw %struct.ossl_param_st, ptr %66, i32 0, i32 0
  %68 = load ptr, ptr %67, align 8, !tbaa !65
  %69 = call i32 @strncmp(ptr noundef %68, ptr noundef @.str.102, i64 noundef 2) #10
  %70 = icmp eq i32 %69, 0
  br i1 %70, label %71, label %75

71:                                               ; preds = %63
  %72 = load ptr, ptr %13, align 8, !tbaa !103
  %73 = load ptr, ptr %7, align 8, !tbaa !43
  %74 = getelementptr inbounds nuw %struct.translation_ctx_st, ptr %73, i32 0, i32 6
  store ptr %72, ptr %74, align 8, !tbaa !40
  br label %89

75:                                               ; preds = %63
  %76 = load ptr, ptr %7, align 8, !tbaa !43
  %77 = getelementptr inbounds nuw %struct.translation_ctx_st, ptr %76, i32 0, i32 8
  %78 = load ptr, ptr %77, align 8, !tbaa !42
  %79 = getelementptr inbounds nuw %struct.ossl_param_st, ptr %78, i32 0, i32 0
  %80 = load ptr, ptr %79, align 8, !tbaa !65
  %81 = call i32 @strncmp(ptr noundef %80, ptr noundef @.str.103, i64 noundef 2) #10
  %82 = icmp eq i32 %81, 0
  br i1 %82, label %83, label %87

83:                                               ; preds = %75
  %84 = load ptr, ptr %14, align 8, !tbaa !103
  %85 = load ptr, ptr %7, align 8, !tbaa !43
  %86 = getelementptr inbounds nuw %struct.translation_ctx_st, ptr %85, i32 0, i32 6
  store ptr %84, ptr %86, align 8, !tbaa !40
  br label %88

87:                                               ; preds = %75
  br label %94

88:                                               ; preds = %83
  br label %89

89:                                               ; preds = %88, %71
  %90 = load i32, ptr %5, align 4, !tbaa !8
  %91 = load ptr, ptr %6, align 8, !tbaa !11
  %92 = load ptr, ptr %7, align 8, !tbaa !43
  %93 = call i32 @default_fixup_args(i32 noundef %90, ptr noundef %91, ptr noundef %92)
  store i32 %93, ptr %15, align 4, !tbaa !8
  br label %94

94:                                               ; preds = %89, %87, %62, %53, %45
  %95 = load ptr, ptr %10, align 8, !tbaa !99
  call void @BN_CTX_free(ptr noundef %95)
  %96 = load i32, ptr %15, align 4, !tbaa !8
  store i32 %96, ptr %4, align 4
  store i32 1, ptr %16, align 4
  br label %97

97:                                               ; preds = %94, %33, %26
  call void @llvm.lifetime.end.p0(i64 4, ptr %15) #9
  call void @llvm.lifetime.end.p0(i64 8, ptr %14) #9
  call void @llvm.lifetime.end.p0(i64 8, ptr %13) #9
  call void @llvm.lifetime.end.p0(i64 8, ptr %12) #9
  call void @llvm.lifetime.end.p0(i64 8, ptr %11) #9
  call void @llvm.lifetime.end.p0(i64 8, ptr %10) #9
  call void @llvm.lifetime.end.p0(i64 8, ptr %9) #9
  call void @llvm.lifetime.end.p0(i64 8, ptr %8) #9
  %98 = load i32, ptr %4, align 4
  ret i32 %98
}