; Function Attrs: nounwind uwtable
define internal i32 @get_payload_public_key_ec(i32 noundef %0, ptr noundef captures(address_is_null) %1, ptr noundef %2) #0 {
  %4 = getelementptr inbounds nuw i8, ptr %2, i64 32
  %5 = load ptr, ptr %4, align 8, !tbaa !35
  %6 = tail call ptr @EVP_PKEY_get0_EC_KEY(ptr noundef %5) #8
  store ptr null, ptr %4, align 8, !tbaa !35
  %7 = icmp eq ptr %6, null
  br i1 %7, label %8, label %9

8:                                                ; preds = %3
  tail call void @ERR_new() #8
  tail call void @ERR_set_debug(ptr noundef nonnull @.str, i32 noundef 1682, ptr noundef nonnull @__func__.get_payload_public_key_ec) #8
  tail call void (i32, i32, ptr, ...) @ERR_set_error(i32 noundef 6, i32 noundef 224, ptr noundef null) #8
  br label %37

9:                                                ; preds = %3
  %10 = tail call ptr @ossl_ec_key_get_libctx(ptr noundef nonnull %6) #8
  %11 = tail call ptr @BN_CTX_new_ex(ptr noundef %10) #8
  %12 = icmp eq ptr %11, null
  br i1 %12, label %37, label %13

13:                                               ; preds = %9
  %14 = tail call ptr @EC_KEY_get0_public_key(ptr noundef nonnull %6) #8
  %15 = tail call ptr @EC_KEY_get0_group(ptr noundef nonnull %6) #8
  %16 = getelementptr inbounds nuw i8, ptr %2, i64 48
  %17 = load ptr, ptr %16, align 8, !tbaa !37
  %18 = getelementptr inbounds nuw i8, ptr %17, i64 8
  %19 = load i32, ptr %18, align 8, !tbaa !57
  %.not = icmp eq i32 %19, 2
  br i1 %.not, label %20, label %.tail33.thread

20:                                               ; preds = %13
  %21 = tail call ptr @BN_CTX_get(ptr noundef nonnull %11) #8
  %22 = tail call ptr @BN_CTX_get(ptr noundef nonnull %11) #8
  %23 = icmp eq ptr %22, null
  br i1 %23, label %.tail33.thread, label %24

24:                                               ; preds = %20
  %25 = tail call i32 @EC_POINT_get_affine_coordinates(ptr noundef %15, ptr noundef %14, ptr noundef %21, ptr noundef nonnull %22, ptr noundef nonnull %11) #8
  %.not32 = icmp eq i32 %25, 0
  br i1 %.not32, label %.tail33.thread, label %sub_0

sub_0:                                            ; preds = %24
  %26 = load ptr, ptr %16, align 8, !tbaa !37
  %27 = load ptr, ptr %26, align 8, !tbaa !60
  %28 = load i8, ptr %27, align 1
  %.not37 = icmp eq i8 %28, 113
  br i1 %.not37, label %.tail, label %.tail33.thread

.tail:                                            ; preds = %sub_0
  %29 = getelementptr inbounds nuw i8, ptr %27, i64 1
  %30 = load i8, ptr %29, align 1
  %31 = icmp eq i8 %30, 120
  br i1 %31, label %35, label %.tail33

.tail33:                                          ; preds = %.tail
  %32 = getelementptr inbounds nuw i8, ptr %27, i64 1
  %33 = load i8, ptr %32, align 1
  %34 = icmp eq i8 %33, 121
  br i1 %34, label %35, label %.tail33.thread

35:                                               ; preds = %.tail33, %.tail
  %storemerge = phi ptr [ %21, %.tail ], [ %22, %.tail33 ]
  store ptr %storemerge, ptr %4, align 8, !tbaa !35
  %36 = tail call i32 @default_fixup_args(i32 noundef %0, ptr noundef %1, ptr noundef nonnull %2)
  br label %.tail33.thread

.tail33.thread:                                   ; preds = %sub_0, %.tail33, %24, %20, %13, %35
  %.0 = phi i32 [ 0, %13 ], [ 0, %20 ], [ %36, %35 ], [ 0, %.tail33 ], [ 0, %24 ], [ 0, %sub_0 ]
  tail call void @BN_CTX_free(ptr noundef nonnull %11) #8
  br label %37

37:                                               ; preds = %9, %.tail33.thread, %8
  %.028 = phi i32 [ 0, %8 ], [ %.0, %.tail33.thread ], [ 0, %9 ]
  ret i32 %.028
}